Certificate:
    Data:
        Version: 3 (0x2)
        Serial Number: 1 (0x1)
        Signature Algorithm: sha256WithRSAEncryption
        Issuer: C=FR, ST=Radius, L=Somewhere, O=Example Inc./emailAddress=admin@example.org, CN=Example Certificate Authority
        Validity
            Not Before: Jun  3 22:41:55 2026 GMT
            Not After : Aug  2 22:41:55 2026 GMT
        Subject: C=FR, ST=Radius, O=Example Inc., CN=Example Server Certificate/emailAddress=admin@example.org
        Subject Public Key Info:
            Public Key Algorithm: rsaEncryption
                Public-Key: (2048 bit)
                Modulus:
                    00:a8:4f:c6:c4:5a:f5:df:50:27:4b:02:39:fb:d2:
                    24:95:cc:79:f2:81:ec:22:93:f9:3c:a2:51:3e:72:
                    cd:8c:9c:97:46:35:81:08:ef:c7:11:fc:e1:18:8b:
                    56:63:c6:aa:ba:a6:7c:2d:09:9b:70:4f:6d:cb:17:
                    ed:c1:88:33:40:db:24:be:34:20:97:9a:ad:8b:4a:
                    20:91:00:45:b5:f1:63:bf:1e:e8:7e:6c:26:7f:5c:
                    6e:25:7b:72:e0:e2:fe:e6:f5:b8:e9:f3:2e:fe:e2:
                    ea:bf:47:b4:72:79:c0:38:8e:4a:e0:8f:88:3c:84:
                    c6:2c:a4:e6:17:e4:7b:95:d2:ba:87:1f:15:dc:03:
                    51:2c:b3:5b:ea:fe:fa:f6:46:88:8c:45:e3:83:63:
                    47:91:5b:b2:ac:8d:95:4a:ca:43:1a:cf:5e:02:56:
                    af:62:52:04:3b:fe:0a:fc:e6:57:13:7b:29:1d:85:
                    28:e1:dd:67:5b:98:57:6c:54:6f:21:d2:47:4c:00:
                    20:a8:e3:02:b4:1c:08:b3:59:a7:06:9c:1b:69:eb:
                    dd:90:45:18:ee:f8:e4:ab:45:4c:05:f4:d9:49:77:
                    57:22:51:8f:5f:ec:10:b6:b6:ab:a7:4f:f8:09:3b:
                    60:86:7e:e3:0e:f6:59:b4:85:d6:ce:8d:f1:38:41:
                    e8:0f
                Exponent: 65537 (0x10001)
        X509v3 extensions:
            X509v3 Extended Key Usage: 
                TLS Web Server Authentication
            X509v3 CRL Distribution Points: 
                Full Name:
                  URI:http://www.example.com/example_ca.crl
            X509v3 Certificate Policies: 
                Policy: 1.3.6.1.4.1.40808.1.3.2
            X509v3 Subject Key Identifier: 
                F3:7C:D3:73:D8:9F:E3:89:D8:FC:47:65:88:6C:EB:D3:6E:44:F4:D1
            X509v3 Authority Key Identifier: 
                5B:22:A7:2B:D1:7B:B4:58:C1:E0:C3:D6:92:97:50:44:79:BF:9E:34
    Signature Algorithm: sha256WithRSAEncryption
    Signature Value:
        51:23:bb:ea:6c:f1:7e:c2:c6:04:86:6c:1d:54:ea:79:ac:99:
        07:6c:65:b0:47:50:a1:f0:d2:ec:65:6a:b5:8c:5c:1c:ab:a4:
        b6:71:fa:47:68:60:f6:47:57:02:95:f7:dd:f5:3c:72:a6:77:
        45:c4:de:6c:01:3f:bc:fb:21:c0:e7:b3:13:fe:19:6c:2a:f8:
        f7:2e:5b:e0:18:c6:e9:b2:30:a9:fa:40:1c:a5:fb:dc:8d:12:
        fc:3b:6b:dd:fd:88:e3:d8:5c:7f:ee:65:59:8a:19:44:4f:f3:
        d3:d4:25:71:24:d8:08:03:4c:75:41:95:46:51:95:95:42:dc:
        73:22:19:fa:b4:55:9e:23:47:36:02:fc:1b:d5:2c:25:32:02:
        21:c8:25:ad:88:c4:1f:30:e5:ab:72:78:62:53:9f:c2:95:e2:
        a6:7c:1f:24:c8:5a:2c:c7:4c:87:18:21:b1:cc:00:93:11:a4:
        fc:86:48:ef:a9:57:d1:51:b6:8e:09:5c:93:aa:f3:95:b5:71:
        8d:c1:e6:c0:07:cd:c8:01:0c:75:78:70:52:26:75:9c:a6:b4:
        db:54:6f:51:c6:85:40:fc:ab:87:aa:1d:7d:98:de:fb:dd:b4:
        85:aa:f2:b0:c4:e3:f6:ba:f1:67:74:dc:c9:f0:66:47:39:dd:
        e9:9e:a8:81
-----BEGIN CERTIFICATE-----
MIIENjCCAx6gAwIBAgIBATANBgkqhkiG9w0BAQsFADCBkzELMAkGA1UEBhMCRlIx
DzANBgNVBAgMBlJhZGl1czESMBAGA1UEBwwJU29tZXdoZXJlMRUwEwYDVQQKDAxF
eGFtcGxlIEluYy4xIDAeBgkqhkiG9w0BCQEWEWFkbWluQGV4YW1wbGUub3JnMSYw
JAYDVQQDDB1FeGFtcGxlIENlcnRpZmljYXRlIEF1dGhvcml0eTAeFw0yNjA2MDMy
MjQxNTVaFw0yNjA4MDIyMjQxNTVaMHwxCzAJBgNVBAYTAkZSMQ8wDQYDVQQIDAZS
YWRpdXMxFTATBgNVBAoMDEV4YW1wbGUgSW5jLjEjMCEGA1UEAwwaRXhhbXBsZSBT
ZXJ2ZXIgQ2VydGlmaWNhdGUxIDAeBgkqhkiG9w0BCQEWEWFkbWluQGV4YW1wbGUu
b3JnMIIBIjANBgkqhkiG9w0BAQEFAAOCAQ8AMIIBCgKCAQEAqE/GxFr131AnSwI5
+9Iklcx58oHsIpP5PKJRPnLNjJyXRjWBCO/HEfzhGItWY8aquqZ8LQmbcE9tyxft
wYgzQNskvjQgl5qti0ogkQBFtfFjvx7ofmwmf1xuJXty4OL+5vW46fMu/uLqv0e0
cnnAOI5K4I+IPITGLKTmF+R7ldK6hx8V3ANRLLNb6v769kaIjEXjg2NHkVuyrI2V
SspDGs9eAlavYlIEO/4K/OZXE3spHYUo4d1nW5hXbFRvIdJHTAAgqOMCtBwIs1mn
BpwbaevdkEUY7vjkq0VMBfTZSXdXIlGPX+wQtrarp0/4CTtghn7jDvZZtIXWzo3x
OEHoDwIDAQABo4GqMIGnMBMGA1UdJQQMMAoGCCsGAQUFBwMBMDYGA1UdHwQvMC0w
K6ApoCeGJWh0dHA6Ly93d3cuZXhhbXBsZS5jb20vZXhhbXBsZV9jYS5jcmwwGAYD
VR0gBBEwDzANBgsrBgEEAYK+aAEDAjAdBgNVHQ4EFgQU83zTc9if44nY/EdliGzr
025E9NEwHwYDVR0jBBgwFoAUWyKnK9F7tFjB4MPWkpdQRHm/njQwDQYJKoZIhvcN
AQELBQADggEBAFEju+ps8X7CxgSGbB1U6nmsmQdsZbBHUKHw0uxlarWMXByrpLZx
+kdoYPZHVwKV9931PHKmd0XE3mwBP7z7IcDnsxP+GWwq+PcuW+AYxumyMKn6QByl
+9yNEvw7a939iOPYXH/uZVmKGURP89PUJXEk2AgDTHVBlUZRlZVC3HMiGfq0VZ4j
RzYC/BvVLCUyAiHIJa2IxB8w5atyeGJTn8KV4qZ8HyTIWizHTIcYIbHMAJMRpPyG
SO+pV9FRto4JXJOq85W1cY3B5sAHzcgBDHV4cFImdZymtNtUb1HGhUD8q4eqHX2Y
3vvdtIWq8rDE4/a68Wd03MnwZkc53emeqIE=
-----END CERTIFICATE-----
